target datalayout = "e-m:e-p270:32:32-p271:32:32-p272:64:64-i64:64-i128:128-f80:128-n8:16:32:64-S128"
target triple = "x86_64-pc-linux-gnu"

%struct.FullTransactionId = type { i64 }
%struct.pg_atomic_uint32 = type { i32 }
%struct.LWLock = type { i16, %struct.pg_atomic_uint32, %struct.proclist_head }
%struct.proclist_head = type { i32, i32 }
%union.LWLockPadded = type { %struct.LWLock, [112 x i8] }
%struct.TransamVariablesData = type { i32, i32, %struct.FullTransactionId, i32, i32, i32, i32, i32, i32, i32, i32, %struct.FullTransactionId, i64, i32 }

@TransamVariables = dso_local global ptr null, align 8
@MainLWLockArray = external global ptr, align 8

; Function Attrs: inlinehint nounwind uwtable
define internal i64 @FullTransactionIdFromEpochAndXid(i32 noundef %0, i32 noundef %1) #5 {
  %3 = alloca %struct.FullTransactionId, align 8
  %4 = alloca i32, align 4
  %5 = alloca i32, align 4
  store i32 %0, ptr %4, align 4
  store i32 %1, ptr %5, align 4
  %6 = load i32, ptr %4, align 4
  %7 = zext i32 %6 to i64
  %8 = shl i64 %7, 32
  %9 = load i32, ptr %5, align 4
  %10 = zext i32 %9 to i64
  %11 = or i64 %8, %10
  %12 = getelementptr inbounds nuw %struct.FullTransactionId, ptr %3, i32 0, i32 0
  store i64 %11, ptr %12, align 8
  %13 = getelementptr inbounds nuw %struct.FullTransactionId, ptr %3, i32 0, i32 0
  %14 = load i64, ptr %13, align 8
  ret i64 %14
}

; Function Attrs: nounwind uwtable
define dso_local void @AdvanceNextFullTransactionIdPastXid(i32 noundef %0) #0 {
  %2 = alloca i32, align 4
  %3 = alloca %struct.FullTransactionId, align 8
  %4 = alloca i32, align 4
  %5 = alloca i32, align 4
  %6 = alloca i32, align 4
  %7 = alloca %struct.FullTransactionId, align 8
  store i32 %0, ptr %2, align 4
  call void @llvm.lifetime.start.p0(i64 8, ptr %3) #8
  call void @llvm.lifetime.start.p0(i64 4, ptr %4) #8
  call void @llvm.lifetime.start.p0(i64 4, ptr %5) #8
  %8 = load ptr, ptr @TransamVariables, align 8
  %9 = getelementptr inbounds nuw %struct.TransamVariablesData, ptr %8, i32 0, i32 2
  %10 = getelementptr inbounds nuw %struct.FullTransactionId, ptr %9, i32 0, i32 0
  %11 = load i64, ptr %10, align 8
  %12 = trunc i64 %11 to i32
  store i32 %12, ptr %4, align 4
  %13 = load i32, ptr %2, align 4
  %14 = load i32, ptr %4, align 4
  %15 = call zeroext i1 @TransactionIdFollowsOrEquals(i32 noundef %13, i32 noundef %14)
  br i1 %15, label %17, label %16

16:                                               ; preds = %1
  store i32 1, ptr %6, align 4
  br label %57

17:                                               ; preds = %1
  br label %18

18:                                               ; preds = %17
  %19 = load i32, ptr %2, align 4
  %20 = add i32 %19, 1
  store i32 %20, ptr %2, align 4
  %21 = load i32, ptr %2, align 4
  %22 = icmp ult i32 %21, 3
  br i1 %22, label %23, label %24

23:                                               ; preds = %18
  store i32 3, ptr %2, align 4
  br label %24

24:                                               ; preds = %23, %18
  br label %25

25:                                               ; preds = %24
  br label %26

26:                                               ; preds = %25
  %27 = load ptr, ptr @TransamVariables, align 8
  %28 = getelementptr inbounds nuw %struct.TransamVariablesData, ptr %27, i32 0, i32 2
  %29 = getelementptr inbounds nuw %struct.FullTransactionId, ptr %28, i32 0, i32 0
  %30 = load i64, ptr %29, align 8
  %31 = lshr i64 %30, 32
  %32 = trunc i64 %31 to i32
  store i32 %32, ptr %5, align 4
  %33 = load i32, ptr %2, align 4
  %34 = load i32, ptr %4, align 4
  %35 = icmp ult i32 %33, %34
  %36 = zext i1 %35 to i32
  %37 = icmp ne i32 %36, 0
  %38 = zext i1 %37 to i32
  %39 = sext i32 %38 to i64
  %40 = call i64 @llvm.expect.i64(i64 %39, i64 0)
  %41 = icmp ne i64 %40, 0
  br i1 %41, label %42, label %45

42:                                               ; preds = %26
  %43 = load i32, ptr %5, align 4
  %44 = add i32 %43, 1
  store i32 %44, ptr %5, align 4
  br label %45

45:                                               ; preds = %42, %26
  call void @llvm.lifetime.start.p0(i64 8, ptr %7) #8
  %46 = load i32, ptr %5, align 4
  %47 = load i32, ptr %2, align 4
  %48 = call i64 @FullTransactionIdFromEpochAndXid(i32 noundef %46, i32 noundef %47)
  %49 = getelementptr inbounds nuw %struct.FullTransactionId, ptr %7, i32 0, i32 0
  store i64 %48, ptr %49, align 8
  call void @llvm.memcpy.p0.p0.i64(ptr align 8 %3, ptr align 8 %7, i64 8, i1 false)
  call void @llvm.lifetime.end.p0(i64 8, ptr %7) #8
  %50 = load ptr, ptr @MainLWLockArray, align 8
  %51 = getelementptr inbounds %union.LWLockPadded, ptr %50, i64 3
  %52 = call zeroext i1 @LWLockAcquire(ptr noundef %51, i32 noundef 0)
  %53 = load ptr, ptr @TransamVariables, align 8
  %54 = getelementptr inbounds nuw %struct.TransamVariablesData, ptr %53, i32 0, i32 2
  call void @llvm.memcpy.p0.p0.i64(ptr align 8 %54, ptr align 8 %3, i64 8, i1 false)
  %55 = load ptr, ptr @MainLWLockArray, align 8
  %56 = getelementptr inbounds %union.LWLockPadded, ptr %55, i64 3
  call void @LWLockRelease(ptr noundef %56)
  store i32 0, ptr %6, align 4
  br label %57

57:                                               ; preds = %45, %16
  call void @llvm.lifetime.end.p0(i64 4, ptr %5) #8
  call void @llvm.lifetime.end.p0(i64 4, ptr %4) #8
  call void @llvm.lifetime.end.p0(i64 8, ptr %3) #8
  %58 = load i32, ptr %6, align 4
  switch i32 %58, label %60 [
    i32 0, label %59
    i32 1, label %59
  ]

59:                                               ; preds = %57, %57
  ret void

60:                                               ; preds = %57
  unreachable
}