; Function Attrs: nounwind uwtable
define dso_local void @AdvanceNextFullTransactionIdPastXid(i32 noundef %0) local_unnamed_addr #1 {
  %2 = load ptr, ptr @TransamVariables, align 8
  %3 = getelementptr inbounds nuw i8, ptr %2, i64 8
  %4 = load i64, ptr %3, align 8
  %5 = trunc i64 %4 to i32
  %6 = tail call zeroext i1 @TransactionIdFollowsOrEquals(i32 noundef %0, i32 noundef %5) #8
  br i1 %6, label %7, label %28

7:                                                ; preds = %1
  %8 = add i32 %0, 1
  %spec.store.select = tail call i32 @llvm.umax.i32(i32 %8, i32 3)
  %9 = load ptr, ptr @TransamVariables, align 8
  %10 = getelementptr inbounds nuw i8, ptr %9, i64 8
  %11 = load i64, ptr %10, align 8
  %12 = lshr i64 %11, 32
  %13 = icmp ult i32 %spec.store.select, %5
  br i1 %13, label %14, label %17, !prof !7

14:                                               ; preds = %7
  %15 = add nuw nsw i64 %12, 1
  %16 = and i64 %15, 4294967295
  br label %17

17:                                               ; preds = %14, %7
  %.0 = phi i64 [ %16, %14 ], [ %12, %7 ]
  %18 = shl nuw i64 %.0, 32
  %19 = zext i32 %spec.store.select to i64
  %20 = or disjoint i64 %18, %19
  %21 = load ptr, ptr @MainLWLockArray, align 8
  %22 = getelementptr inbounds nuw i8, ptr %21, i64 384
  %23 = tail call zeroext i1 @LWLockAcquire(ptr noundef nonnull %22, i32 noundef 0) #8
  %24 = load ptr, ptr @TransamVariables, align 8
  %25 = getelementptr inbounds nuw i8, ptr %24, i64 8
  store i64 %20, ptr %25, align 8
  %26 = load ptr, ptr @MainLWLockArray, align 8
  %27 = getelementptr inbounds nuw i8, ptr %26, i64 384
  tail call void @LWLockRelease(ptr noundef nonnull %27) #8
  br label %28

28:                                               ; preds = %1, %17
  ret void
}